; Function Attrs: mustprogress uwtable
define void @_ZN14AtomProperties21elementFromAtomNumberB5cxx11Ei(ptr dead_on_unwind noalias writable sret(%"class.std::__cxx11::basic_string") align 8 %0, ptr nocapture noundef nonnull readonly align 8 dereferenceable(8) %1, i32 noundef %2) local_unnamed_addr #0 align 2 personality ptr @__gxx_personality_v0 {
  %4 = alloca %"class.std::allocator", align 1
  %5 = load ptr, ptr %1, align 8
  %6 = getelementptr inbounds i8, ptr %5, i64 296
  %7 = getelementptr inbounds i8, ptr %5, i64 368
  %8 = load i8, ptr %5, align 8
  %9 = trunc i8 %8 to i1
  %10 = tail call fastcc noundef zeroext i1 @_ZL13setPropertiesP12AtomPropertyRKSt13unordered_mapINSt7__cxx1112basic_stringIcSt11char_traitsIcESaIcEEES7_St4hashIS7_EN3gmx20EqualCaseInsensitiveESaISt4pairIKS7_S7_EEEib(ptr noundef nonnull %6, ptr noundef nonnull align 8 dereferenceable(56) %7, i32 noundef 4, i1 noundef zeroext %9)
  br i1 %10, label %11, label %13

11:                                               ; preds = %3
  %puts.i = tail call i32 @puts(ptr nonnull dereferenceable(1) @str)
  %12 = load ptr, ptr %1, align 8
  store i8 1, ptr %12, align 8
  br label %13

13:                                               ; preds = %11, %3
  %14 = load ptr, ptr %1, align 8
  %15 = getelementptr inbounds i8, ptr %14, i64 344
  %16 = load ptr, ptr %15, align 8
  %17 = getelementptr inbounds i8, ptr %14, i64 352
  %18 = load ptr, ptr %17, align 8
  %.not12 = icmp eq ptr %16, %18
  br i1 %.not12, label %._crit_edge, label %.lr.ph

.lr.ph:                                           ; preds = %13
  %19 = sitofp i32 %2 to float
  br label %20

20:                                               ; preds = %.lr.ph, %26
  %.sroa.08.013 = phi ptr [ %16, %.lr.ph ], [ %27, %26 ]
  %21 = getelementptr inbounds i8, ptr %.sroa.08.013, i64 68
  %22 = load float, ptr %21, align 4
  %23 = tail call noundef float @llvm.round.f32(float %22)
  %24 = fcmp oeq float %23, %19
  br i1 %24, label %25, label %26

25:                                               ; preds = %20
  tail call void @_ZNSt7__cxx1112basic_stringIcSt11char_traitsIcESaIcEEC1ERKS4_(ptr noundef nonnull align 8 dereferenceable(32) %0, ptr noundef nonnull align 8 dereferenceable(32) %.sroa.08.013)
  br label %33

26:                                               ; preds = %20
  %27 = getelementptr inbounds i8, ptr %.sroa.08.013, i64 72
  %.not = icmp eq ptr %27, %18
  br i1 %.not, label %._crit_edge, label %20

._crit_edge:                                      ; preds = %26, %13
  call void @_ZNSaIcEC1Ev(ptr noundef nonnull align 1 dereferenceable(1) %4) #19
  %28 = invoke noundef ptr @_ZNSt7__cxx1112basic_stringIcSt11char_traitsIcESaIcEE13_M_local_dataEv(ptr noundef nonnull align 8 dereferenceable(32) %0)
          to label %.noexc unwind label %31

.noexc:                                           ; preds = %._crit_edge
  invoke void @_ZNSt7__cxx1112basic_stringIcSt11char_traitsIcESaIcEE12_Alloc_hiderC1EPcRKS3_(ptr noundef nonnull align 8 dereferenceable(8) %0, ptr noundef %28, ptr noundef nonnull align 1 dereferenceable(1) %4)
          to label %.noexc7 unwind label %31

.noexc7:                                          ; preds = %.noexc
  invoke void @_ZNSt7__cxx1112basic_stringIcSt11char_traitsIcESaIcEE12_M_constructIPKcEEvT_S8_St20forward_iterator_tag(ptr noundef nonnull align 8 dereferenceable(32) %0, ptr noundef nonnull @.str.25, ptr noundef nonnull @.str.25)
          to label %_ZNSt7__cxx1112basic_stringIcSt11char_traitsIcESaIcEEC2IS3_EEPKcRKS3_.exit unwind label %29

29:                                               ; preds = %.noexc7
  %30 = landingpad { ptr, i32 }
          cleanup
  call void @_ZNSaIcED2Ev(ptr noundef nonnull align 1 dereferenceable(1) %0) #19
  br label %.body

_ZNSt7__cxx1112basic_stringIcSt11char_traitsIcESaIcEEC2IS3_EEPKcRKS3_.exit: ; preds = %.noexc7
  call void @_ZNSaIcED1Ev(ptr noundef nonnull align 1 dereferenceable(1) %4) #19
  br label %33

31:                                               ; preds = %.noexc, %._crit_edge
  %32 = landingpad { ptr, i32 }
          cleanup
  br label %.body

.body:                                            ; preds = %29, %31
  %eh.lpad-body = phi { ptr, i32 } [ %32, %31 ], [ %30, %29 ]
  call void @_ZNSaIcED1Ev(ptr noundef nonnull align 1 dereferenceable(1) %4) #19
  resume { ptr, i32 } %eh.lpad-body

33:                                               ; preds = %_ZNSt7__cxx1112basic_stringIcSt11char_traitsIcESaIcEEC2IS3_EEPKcRKS3_.exit, %25
  ret void
}